target datalayout = "e-m:e-p270:32:32-p271:32:32-p272:64:64-i64:64-i128:128-f80:128-n8:16:32:64-S128"
target triple = "x86_64-pc-linux-gnu"

%union.git_hash_ctx = type { %struct.SHA1_CTX }
%struct.SHA1_CTX = type { i64, [5 x i32], [64 x i8], i32, i32, i32, i32, i32, ptr, [5 x i32], [5 x i32], [80 x i32], [80 x i32], [80 x [5 x i32]] }
%struct.git_hash_algo = type { ptr, i32, i64, i64, i64, ptr, ptr, ptr, ptr, ptr, ptr, ptr, ptr, ptr }
%struct.repository = type { ptr, ptr, ptr, ptr, ptr, %struct.strmap, %struct.strmap, %struct.repo_path_cache, ptr, ptr, ptr, ptr, %struct.repo_settings, ptr, ptr, ptr, ptr, ptr, ptr, i32, i32, i32, ptr, ptr, i32, i32, i8 }
%struct.strmap = type { %struct.hashmap, ptr, i8 }
%struct.hashmap = type { ptr, ptr, ptr, i32, i32, i32, i32, i8 }
%struct.repo_path_cache = type { ptr, ptr, ptr, ptr, ptr, ptr, ptr }
%struct.repo_settings = type { i32, i32, i32, i32, i32, i32, i32, i32, i32, i32, i32, i32, ptr, i32, i32, i32, i32, i32, i32, i32, i64, i64, i64 }
%struct.git_zstream = type { %struct.z_stream_s, i64, i64, i64, i64, ptr, ptr }
%struct.z_stream_s = type { ptr, i32, i64, ptr, i32, i64, ptr, ptr, ptr, ptr, ptr, i32, i64, i64 }
%struct.input_zstream_data = type { ptr, [8192 x i8], i32 }
%struct.input_stream = type { ptr, ptr, i32 }

@buffer = internal global [4096 x i8] zeroinitializer, align 16
@len = internal global i32 0, align 4
@the_repository = external global ptr, align 8
@ctx = internal global %union.git_hash_ctx zeroinitializer, align 8
@offset = internal global i32 0, align 4
@.str.36 = private unnamed_addr constant [21 x i8] c"cannot fill %d bytes\00", align 1
@.str.37 = private unnamed_addr constant [10 x i8] c"early EOF\00", align 1
@.str.38 = private unnamed_addr constant [20 x i8] c"read error on input\00", align 1

; Function Attrs: nounwind uwtable
define internal ptr @fill(i32 noundef %0) #0 {
  %2 = alloca ptr, align 8
  %3 = alloca i32, align 4
  %4 = alloca i64, align 8
  store i32 %0, ptr %3, align 4, !tbaa !4
  %5 = load i32, ptr %3, align 4, !tbaa !4
  %6 = load i32, ptr @len, align 4, !tbaa !4
  %7 = icmp ule i32 %5, %6
  br i1 %7, label %8, label %12

8:                                                ; preds = %1
  %9 = load i32, ptr @offset, align 4, !tbaa !4
  %10 = zext i32 %9 to i64
  %11 = getelementptr inbounds nuw i8, ptr @buffer, i64 %10
  store ptr %11, ptr %2, align 8
  br label %61

12:                                               ; preds = %1
  %13 = load i32, ptr %3, align 4, !tbaa !4
  %14 = sext i32 %13 to i64
  %15 = icmp ugt i64 %14, 4096
  br i1 %15, label %16, label %18

16:                                               ; preds = %12
  %17 = load i32, ptr %3, align 4, !tbaa !4
  call void (ptr, ...) @die(ptr noundef @.str.36, i32 noundef %17) #12
  unreachable

18:                                               ; preds = %12
  %19 = load i32, ptr @offset, align 4, !tbaa !4
  %20 = icmp ne i32 %19, 0
  br i1 %20, label %21, label %34

21:                                               ; preds = %18
  %22 = load ptr, ptr @the_repository, align 8, !tbaa !13
  %23 = getelementptr inbounds nuw %struct.repository, ptr %22, i32 0, i32 17
  %24 = load ptr, ptr %23, align 8, !tbaa !20
  %25 = getelementptr inbounds nuw %struct.git_hash_algo, ptr %24, i32 0, i32 7
  %26 = load ptr, ptr %25, align 8, !tbaa !41
  %27 = load i32, ptr @offset, align 4, !tbaa !4
  %28 = zext i32 %27 to i64
  call void %26(ptr noundef @ctx, ptr noundef @buffer, i64 noundef %28)
  %29 = load i32, ptr @offset, align 4, !tbaa !4
  %30 = zext i32 %29 to i64
  %31 = getelementptr inbounds nuw i8, ptr @buffer, i64 %30
  %32 = load i32, ptr @len, align 4, !tbaa !4
  %33 = zext i32 %32 to i64
  call void @llvm.memmove.p0.p0.i64(ptr align 16 @buffer, ptr align 1 %31, i64 %33, i1 false)
  store i32 0, ptr @offset, align 4, !tbaa !4
  br label %34

34:                                               ; preds = %21, %18
  br label %35

35:                                               ; preds = %56, %34
  call void @llvm.lifetime.start.p0(i64 8, ptr %4) #10
  %36 = load i32, ptr @len, align 4, !tbaa !4
  %37 = zext i32 %36 to i64
  %38 = getelementptr inbounds nuw i8, ptr @buffer, i64 %37
  %39 = load i32, ptr @len, align 4, !tbaa !4
  %40 = zext i32 %39 to i64
  %41 = sub i64 4096, %40
  %42 = call i64 @xread(i32 noundef 0, ptr noundef %38, i64 noundef %41)
  store i64 %42, ptr %4, align 8, !tbaa !16
  %43 = load i64, ptr %4, align 8, !tbaa !16
  %44 = icmp sle i64 %43, 0
  br i1 %44, label %45, label %50

45:                                               ; preds = %35
  %46 = load i64, ptr %4, align 8, !tbaa !16
  %47 = icmp ne i64 %46, 0
  br i1 %47, label %49, label %48

48:                                               ; preds = %45
  call void (ptr, ...) @die(ptr noundef @.str.37) #12
  unreachable

49:                                               ; preds = %45
  call void (ptr, ...) @die_errno(ptr noundef @.str.38) #12
  unreachable

50:                                               ; preds = %35
  %51 = load i64, ptr %4, align 8, !tbaa !16
  %52 = load i32, ptr @len, align 4, !tbaa !4
  %53 = zext i32 %52 to i64
  %54 = add nsw i64 %53, %51
  %55 = trunc i64 %54 to i32
  store i32 %55, ptr @len, align 4, !tbaa !4
  call void @llvm.lifetime.end.p0(i64 8, ptr %4) #10
  br label %56

56:                                               ; preds = %50
  %57 = load i32, ptr @len, align 4, !tbaa !4
  %58 = load i32, ptr %3, align 4, !tbaa !4
  %59 = icmp ult i32 %57, %58
  br i1 %59, label %35, label %60, !llvm.loop !60

60:                                               ; preds = %56
  store ptr @buffer, ptr %2, align 8
  br label %61

61:                                               ; preds = %60, %8
  %62 = load ptr, ptr %2, align 8
  ret ptr %62
}

; Function Attrs: nounwind uwtable
define internal ptr @feed_input_zstream(ptr noundef %0, ptr noundef %1) #0 {
  %3 = alloca ptr, align 8
  %4 = alloca ptr, align 8
  %5 = alloca ptr, align 8
  %6 = alloca ptr, align 8
  %7 = alloca ptr, align 8
  %8 = alloca ptr, align 8
  %9 = alloca i32, align 4
  store ptr %0, ptr %4, align 8, !tbaa !77
  store ptr %1, ptr %5, align 8, !tbaa !79
  call void @llvm.lifetime.start.p0(i64 8, ptr %6) #10
  %10 = load ptr, ptr %4, align 8, !tbaa !77
  %11 = getelementptr inbounds nuw %struct.input_stream, ptr %10, i32 0, i32 1
  %12 = load ptr, ptr %11, align 8, !tbaa !67
  store ptr %12, ptr %6, align 8, !tbaa !81
  call void @llvm.lifetime.start.p0(i64 8, ptr %7) #10
  %13 = load ptr, ptr %6, align 8, !tbaa !81
  %14 = getelementptr inbounds nuw %struct.input_zstream_data, ptr %13, i32 0, i32 0
  %15 = load ptr, ptr %14, align 8, !tbaa !69
  store ptr %15, ptr %7, align 8, !tbaa !83
  call void @llvm.lifetime.start.p0(i64 8, ptr %8) #10
  %16 = call ptr @fill(i32 noundef 1)
  store ptr %16, ptr %8, align 8, !tbaa !45
  %17 = load ptr, ptr %4, align 8, !tbaa !77
  %18 = getelementptr inbounds nuw %struct.input_stream, ptr %17, i32 0, i32 2
  %19 = load i32, ptr %18, align 8, !tbaa !68
  %20 = icmp ne i32 %19, 0
  br i1 %20, label %21, label %23

21:                                               ; preds = %2
  %22 = load ptr, ptr %5, align 8, !tbaa !79
  store i64 0, ptr %22, align 8, !tbaa !16
  store ptr null, ptr %3, align 8
  store i32 1, ptr %9, align 4
  br label %64

23:                                               ; preds = %2
  %24 = load ptr, ptr %6, align 8, !tbaa !81
  %25 = getelementptr inbounds nuw %struct.input_zstream_data, ptr %24, i32 0, i32 1
  %26 = getelementptr inbounds [8192 x i8], ptr %25, i64 0, i64 0
  %27 = load ptr, ptr %7, align 8, !tbaa !83
  %28 = getelementptr inbounds nuw %struct.git_zstream, ptr %27, i32 0, i32 6
  store ptr %26, ptr %28, align 8, !tbaa !84
  %29 = load ptr, ptr %7, align 8, !tbaa !83
  %30 = getelementptr inbounds nuw %struct.git_zstream, ptr %29, i32 0, i32 2
  store i64 8192, ptr %30, align 8, !tbaa !88
  %31 = load ptr, ptr %8, align 8, !tbaa !45
  %32 = load ptr, ptr %7, align 8, !tbaa !83
  %33 = getelementptr inbounds nuw %struct.git_zstream, ptr %32, i32 0, i32 5
  store ptr %31, ptr %33, align 8, !tbaa !89
  %34 = load i32, ptr @len, align 4, !tbaa !4
  %35 = zext i32 %34 to i64
  %36 = load ptr, ptr %7, align 8, !tbaa !83
  %37 = getelementptr inbounds nuw %struct.git_zstream, ptr %36, i32 0, i32 1
  store i64 %35, ptr %37, align 8, !tbaa !90
  %38 = load ptr, ptr %7, align 8, !tbaa !83
  %39 = call i32 @git_inflate(ptr noundef %38, i32 noundef 0)
  %40 = load ptr, ptr %6, align 8, !tbaa !81
  %41 = getelementptr inbounds nuw %struct.input_zstream_data, ptr %40, i32 0, i32 2
  store i32 %39, ptr %41, align 8, !tbaa !72
  %42 = load ptr, ptr %6, align 8, !tbaa !81
  %43 = getelementptr inbounds nuw %struct.input_zstream_data, ptr %42, i32 0, i32 2
  %44 = load i32, ptr %43, align 8, !tbaa !72
  %45 = icmp ne i32 %44, 0
  %46 = zext i1 %45 to i32
  %47 = load ptr, ptr %4, align 8, !tbaa !77
  %48 = getelementptr inbounds nuw %struct.input_stream, ptr %47, i32 0, i32 2
  store i32 %46, ptr %48, align 8, !tbaa !68
  %49 = load i32, ptr @len, align 4, !tbaa !4
  %50 = zext i32 %49 to i64
  %51 = load ptr, ptr %7, align 8, !tbaa !83
  %52 = getelementptr inbounds nuw %struct.git_zstream, ptr %51, i32 0, i32 1
  %53 = load i64, ptr %52, align 8, !tbaa !90
  %54 = sub i64 %50, %53
  %55 = trunc i64 %54 to i32
  call void @use(i32 noundef %55)
  %56 = load ptr, ptr %7, align 8, !tbaa !83
  %57 = getelementptr inbounds nuw %struct.git_zstream, ptr %56, i32 0, i32 2
  %58 = load i64, ptr %57, align 8, !tbaa !88
  %59 = sub i64 8192, %58
  %60 = load ptr, ptr %5, align 8, !tbaa !79
  store i64 %59, ptr %60, align 8, !tbaa !16
  %61 = load ptr, ptr %6, align 8, !tbaa !81
  %62 = getelementptr inbounds nuw %struct.input_zstream_data, ptr %61, i32 0, i32 1
  %63 = getelementptr inbounds [8192 x i8], ptr %62, i64 0, i64 0
  store ptr %63, ptr %3, align 8
  store i32 1, ptr %9, align 4
  br label %64

64:                                               ; preds = %23, %21
  call void @llvm.lifetime.end.p0(i64 8, ptr %8) #10
  call void @llvm.lifetime.end.p0(i64 8, ptr %7) #10
  call void @llvm.lifetime.end.p0(i64 8, ptr %6) #10
  %65 = load ptr, ptr %3, align 8
  ret ptr %65
}