; Function Attrs: nounwind uwtable
define internal ptr @feed_input_zstream(ptr noundef captures(none) %0, ptr noundef writeonly captures(none) %1) #0 {
  %3 = getelementptr inbounds nuw i8, ptr %0, i64 8
  %4 = load ptr, ptr %3, align 8, !tbaa !53
  %5 = load ptr, ptr %4, align 8, !tbaa !55
  %6 = load i32, ptr @len, align 4, !tbaa !9
  %.not.i = icmp eq i32 %6, 0
  %7 = load i32, ptr @offset, align 4, !tbaa !9
  br i1 %.not.i, label %11, label %8

8:                                                ; preds = %2
  %9 = zext i32 %7 to i64
  %10 = getelementptr inbounds nuw i8, ptr @buffer, i64 %9
  br label %fill.exit

11:                                               ; preds = %2
  %.not10.i = icmp eq i32 %7, 0
  br i1 %.not10.i, label %.preheader, label %12

12:                                               ; preds = %11
  %13 = load ptr, ptr @the_repository, align 8, !tbaa !4
  %14 = getelementptr inbounds nuw i8, ptr %13, i64 400
  %15 = load ptr, ptr %14, align 8, !tbaa !19
  %16 = getelementptr inbounds nuw i8, ptr %15, i64 56
  %17 = load ptr, ptr %16, align 8, !tbaa !40
  %18 = zext i32 %7 to i64
  tail call void %17(ptr noundef nonnull @ctx, ptr noundef nonnull @buffer, i64 noundef %18) #14
  %19 = load i32, ptr @offset, align 4, !tbaa !9
  %20 = zext i32 %19 to i64
  %21 = getelementptr inbounds nuw i8, ptr @buffer, i64 %20
  %22 = load i32, ptr @len, align 4, !tbaa !9
  %23 = zext i32 %22 to i64
  tail call void @llvm.memmove.p0.p0.i64(ptr nonnull align 16 @buffer, ptr nonnull align 1 %21, i64 %23, i1 false)
  store i32 0, ptr @offset, align 4, !tbaa !9
  br label %.preheader

.preheader:                                       ; preds = %12, %11
  %.ph = phi i64 [ 0, %11 ], [ %23, %12 ]
  br label %24

24:                                               ; preds = %.preheader, %33
  %25 = phi i64 [ 0, %33 ], [ %.ph, %.preheader ]
  %26 = getelementptr inbounds nuw i8, ptr @buffer, i64 %25
  %27 = sub nsw i64 4096, %25
  %28 = tail call i64 @xread(i32 noundef 0, ptr noundef nonnull %26, i64 noundef %27) #14
  %29 = icmp slt i64 %28, 1
  br i1 %29, label %30, label %33

30:                                               ; preds = %24
  %.not11.i = icmp eq i64 %28, 0
  br i1 %.not11.i, label %31, label %32

31:                                               ; preds = %30
  tail call void (ptr, ...) @die(ptr noundef nonnull @.str.37) #16
  unreachable

32:                                               ; preds = %30
  tail call void (ptr, ...) @die_errno(ptr noundef nonnull @.str.38) #16
  unreachable

33:                                               ; preds = %24
  %34 = load i32, ptr @len, align 4, !tbaa !9
  %35 = trunc i64 %28 to i32
  %36 = add i32 %34, %35
  store i32 %36, ptr @len, align 4, !tbaa !9
  %37 = icmp eq i32 %36, 0
  br i1 %37, label %24, label %fill.exit, !llvm.loop !41

fill.exit:                                        ; preds = %33, %8
  %38 = phi i32 [ %6, %8 ], [ %36, %33 ]
  %.0.i = phi ptr [ %10, %8 ], [ @buffer, %33 ]
  %39 = getelementptr inbounds nuw i8, ptr %0, i64 16
  %40 = load i32, ptr %39, align 8, !tbaa !54
  %.not = icmp eq i32 %40, 0
  br i1 %.not, label %41, label %58

41:                                               ; preds = %fill.exit
  %42 = getelementptr inbounds nuw i8, ptr %4, i64 8
  %43 = getelementptr inbounds nuw i8, ptr %5, i64 152
  store ptr %42, ptr %43, align 8, !tbaa !77
  %44 = getelementptr inbounds nuw i8, ptr %5, i64 120
  store i64 8192, ptr %44, align 8, !tbaa !81
  %45 = getelementptr inbounds nuw i8, ptr %5, i64 144
  store ptr %.0.i, ptr %45, align 8, !tbaa !82
  %46 = zext i32 %38 to i64
  %47 = getelementptr inbounds nuw i8, ptr %5, i64 112
  store i64 %46, ptr %47, align 8, !tbaa !83
  %48 = tail call i32 @git_inflate(ptr noundef %5, i32 noundef 0) #14
  %49 = getelementptr inbounds nuw i8, ptr %4, i64 8200
  store i32 %48, ptr %49, align 8, !tbaa !58
  %50 = icmp ne i32 %48, 0
  %51 = zext i1 %50 to i32
  store i32 %51, ptr %39, align 8, !tbaa !54
  %52 = load i32, ptr @len, align 4, !tbaa !9
  %53 = load i64, ptr %47, align 8, !tbaa !83
  %54 = trunc i64 %53 to i32
  %55 = sub i32 %52, %54
  tail call fastcc void @use(i32 noundef %55)
  %56 = load i64, ptr %44, align 8, !tbaa !81
  %57 = sub i64 8192, %56
  br label %58

58:                                               ; preds = %fill.exit, %41
  %storemerge = phi i64 [ %57, %41 ], [ 0, %fill.exit ]
  %.0 = phi ptr [ %42, %41 ], [ null, %fill.exit ]
  store i64 %storemerge, ptr %1, align 8, !tbaa !16
  ret ptr %.0
}